target datalayout = "e-m:e-p270:32:32-p271:32:32-p272:64:64-i64:64-i128:128-f80:128-n8:16:32:64-S128"
target triple = "x86_64-pc-linux-gnu"

%struct._stat_tap_table_item_type = type { i32, %union.anon, %union.anon.0 }
%union.anon = type { ptr }
%union.anon.0 = type { ptr }
%struct._stat_tap_table = type { ptr, ptr, i32, i32, ptr }

@componentstatusprotocol_total_msgs = internal global i64 0, align 8
@componentstatusprotocol_total_bytes = internal global i64 0, align 8

; Function Attrs: nounwind uwtable
define internal void @componentstatusprotocol_stat_reset(ptr noundef %0) #0 {
  %2 = alloca ptr, align 8
  %3 = alloca i32, align 4
  %4 = alloca ptr, align 8
  store ptr %0, ptr %2, align 8
  store i32 0, ptr %3, align 4
  br label %5

5:                                                ; preds = %98, %1
  %6 = load i32, ptr %3, align 4
  %7 = load ptr, ptr %2, align 8
  %8 = getelementptr inbounds %struct._stat_tap_table, ptr %7, i32 0, i32 3
  %9 = load i32, ptr %8, align 4
  %10 = icmp ult i32 %6, %9
  br i1 %10, label %11, label %101

11:                                               ; preds = %5
  %12 = load ptr, ptr %2, align 8
  %13 = load i32, ptr %3, align 4
  %14 = call ptr @stat_tap_get_field_data(ptr noundef %12, i32 noundef %13, i32 noundef 1)
  store ptr %14, ptr %4, align 8
  %15 = load ptr, ptr %4, align 8
  %16 = getelementptr inbounds %struct._stat_tap_table_item_type, ptr %15, i32 0, i32 1
  store i32 0, ptr %16, align 8
  %17 = load ptr, ptr %2, align 8
  %18 = load i32, ptr %3, align 4
  %19 = load ptr, ptr %4, align 8
  call void @stat_tap_set_field_data(ptr noundef %17, i32 noundef %18, i32 noundef 1, ptr noundef %19)
  %20 = load ptr, ptr %2, align 8
  %21 = load i32, ptr %3, align 4
  %22 = call ptr @stat_tap_get_field_data(ptr noundef %20, i32 noundef %21, i32 noundef 2)
  store ptr %22, ptr %4, align 8
  %23 = load ptr, ptr %4, align 8
  %24 = getelementptr inbounds %struct._stat_tap_table_item_type, ptr %23, i32 0, i32 0
  store i32 0, ptr %24, align 8
  %25 = load ptr, ptr %4, align 8
  %26 = getelementptr inbounds %struct._stat_tap_table_item_type, ptr %25, i32 0, i32 1
  store double -1.000000e+00, ptr %26, align 8
  %27 = load ptr, ptr %2, align 8
  %28 = load i32, ptr %3, align 4
  %29 = load ptr, ptr %4, align 8
  call void @stat_tap_set_field_data(ptr noundef %27, i32 noundef %28, i32 noundef 2, ptr noundef %29)
  %30 = load ptr, ptr %2, align 8
  %31 = load i32, ptr %3, align 4
  %32 = call ptr @stat_tap_get_field_data(ptr noundef %30, i32 noundef %31, i32 noundef 3)
  store ptr %32, ptr %4, align 8
  %33 = load ptr, ptr %4, align 8
  %34 = getelementptr inbounds %struct._stat_tap_table_item_type, ptr %33, i32 0, i32 1
  store i32 0, ptr %34, align 8
  %35 = load ptr, ptr %2, align 8
  %36 = load i32, ptr %3, align 4
  %37 = load ptr, ptr %4, align 8
  call void @stat_tap_set_field_data(ptr noundef %35, i32 noundef %36, i32 noundef 3, ptr noundef %37)
  %38 = load ptr, ptr %2, align 8
  %39 = load i32, ptr %3, align 4
  %40 = call ptr @stat_tap_get_field_data(ptr noundef %38, i32 noundef %39, i32 noundef 4)
  store ptr %40, ptr %4, align 8
  %41 = load ptr, ptr %4, align 8
  %42 = getelementptr inbounds %struct._stat_tap_table_item_type, ptr %41, i32 0, i32 0
  store i32 0, ptr %42, align 8
  %43 = load ptr, ptr %4, align 8
  %44 = getelementptr inbounds %struct._stat_tap_table_item_type, ptr %43, i32 0, i32 1
  store double -1.000000e+00, ptr %44, align 8
  %45 = load ptr, ptr %2, align 8
  %46 = load i32, ptr %3, align 4
  %47 = load ptr, ptr %4, align 8
  call void @stat_tap_set_field_data(ptr noundef %45, i32 noundef %46, i32 noundef 4, ptr noundef %47)
  %48 = load ptr, ptr %2, align 8
  %49 = load i32, ptr %3, align 4
  %50 = call ptr @stat_tap_get_field_data(ptr noundef %48, i32 noundef %49, i32 noundef 5)
  store ptr %50, ptr %4, align 8
  %51 = load ptr, ptr %4, align 8
  %52 = getelementptr inbounds %struct._stat_tap_table_item_type, ptr %51, i32 0, i32 0
  store i32 0, ptr %52, align 8
  %53 = load ptr, ptr %4, align 8
  %54 = getelementptr inbounds %struct._stat_tap_table_item_type, ptr %53, i32 0, i32 1
  store double 0x7FEFFFFFFFFFFFFF, ptr %54, align 8
  %55 = load ptr, ptr %2, align 8
  %56 = load i32, ptr %3, align 4
  %57 = load ptr, ptr %4, align 8
  call void @stat_tap_set_field_data(ptr noundef %55, i32 noundef %56, i32 noundef 5, ptr noundef %57)
  %58 = load ptr, ptr %2, align 8
  %59 = load i32, ptr %3, align 4
  %60 = call ptr @stat_tap_get_field_data(ptr noundef %58, i32 noundef %59, i32 noundef 6)
  store ptr %60, ptr %4, align 8
  %61 = load ptr, ptr %4, align 8
  %62 = getelementptr inbounds %struct._stat_tap_table_item_type, ptr %61, i32 0, i32 0
  store i32 0, ptr %62, align 8
  %63 = load ptr, ptr %4, align 8
  %64 = getelementptr inbounds %struct._stat_tap_table_item_type, ptr %63, i32 0, i32 1
  store double 0x10000000000000, ptr %64, align 8
  %65 = load ptr, ptr %2, align 8
  %66 = load i32, ptr %3, align 4
  %67 = load ptr, ptr %4, align 8
  call void @stat_tap_set_field_data(ptr noundef %65, i32 noundef %66, i32 noundef 6, ptr noundef %67)
  %68 = load ptr, ptr %2, align 8
  %69 = load i32, ptr %3, align 4
  %70 = call ptr @stat_tap_get_field_data(ptr noundef %68, i32 noundef %69, i32 noundef 7)
  store ptr %70, ptr %4, align 8
  %71 = load ptr, ptr %4, align 8
  %72 = getelementptr inbounds %struct._stat_tap_table_item_type, ptr %71, i32 0, i32 0
  store i32 0, ptr %72, align 8
  %73 = load ptr, ptr %4, align 8
  %74 = getelementptr inbounds %struct._stat_tap_table_item_type, ptr %73, i32 0, i32 1
  store double -1.000000e+00, ptr %74, align 8
  %75 = load ptr, ptr %2, align 8
  %76 = load i32, ptr %3, align 4
  %77 = load ptr, ptr %4, align 8
  call void @stat_tap_set_field_data(ptr noundef %75, i32 noundef %76, i32 noundef 7, ptr noundef %77)
  %78 = load ptr, ptr %2, align 8
  %79 = load i32, ptr %3, align 4
  %80 = call ptr @stat_tap_get_field_data(ptr noundef %78, i32 noundef %79, i32 noundef 8)
  store ptr %80, ptr %4, align 8
  %81 = load ptr, ptr %4, align 8
  %82 = getelementptr inbounds %struct._stat_tap_table_item_type, ptr %81, i32 0, i32 0
  store i32 0, ptr %82, align 8
  %83 = load ptr, ptr %4, align 8
  %84 = getelementptr inbounds %struct._stat_tap_table_item_type, ptr %83, i32 0, i32 1
  store double -1.000000e+00, ptr %84, align 8
  %85 = load ptr, ptr %2, align 8
  %86 = load i32, ptr %3, align 4
  %87 = load ptr, ptr %4, align 8
  call void @stat_tap_set_field_data(ptr noundef %85, i32 noundef %86, i32 noundef 8, ptr noundef %87)
  %88 = load ptr, ptr %2, align 8
  %89 = load i32, ptr %3, align 4
  %90 = call ptr @stat_tap_get_field_data(ptr noundef %88, i32 noundef %89, i32 noundef 9)
  store ptr %90, ptr %4, align 8
  %91 = load ptr, ptr %4, align 8
  %92 = getelementptr inbounds %struct._stat_tap_table_item_type, ptr %91, i32 0, i32 0
  store i32 0, ptr %92, align 8
  %93 = load ptr, ptr %4, align 8
  %94 = getelementptr inbounds %struct._stat_tap_table_item_type, ptr %93, i32 0, i32 1
  store double -1.000000e+00, ptr %94, align 8
  %95 = load ptr, ptr %2, align 8
  %96 = load i32, ptr %3, align 4
  %97 = load ptr, ptr %4, align 8
  call void @stat_tap_set_field_data(ptr noundef %95, i32 noundef %96, i32 noundef 9, ptr noundef %97)
  br label %98

98:                                               ; preds = %11
  %99 = load i32, ptr %3, align 4
  %100 = add i32 %99, 1
  store i32 %100, ptr %3, align 4
  br label %5, !llvm.loop !7

101:                                              ; preds = %5
  store i64 0, ptr @componentstatusprotocol_total_msgs, align 8
  store i64 0, ptr @componentstatusprotocol_total_bytes, align 8
  ret void
}