; Function Attrs: nounwind uwtable
define internal void @componentstatusprotocol_stat_reset(ptr noundef %0) #0 {
  %2 = getelementptr inbounds nuw i8, ptr %0, i64 20
  %3 = load i32, ptr %2, align 4
  %.not = icmp eq i32 %3, 0
  br i1 %.not, label %._crit_edge, label %.lr.ph

.lr.ph:                                           ; preds = %1, %.lr.ph
  %.063 = phi i32 [ %22, %.lr.ph ], [ 0, %1 ]
  %4 = tail call ptr @stat_tap_get_field_data(ptr noundef nonnull %0, i32 noundef %.063, i32 noundef 1) #4
  %5 = getelementptr inbounds nuw i8, ptr %4, i64 8
  store i32 0, ptr %5, align 8
  tail call void @stat_tap_set_field_data(ptr noundef nonnull %0, i32 noundef %.063, i32 noundef 1, ptr noundef %4) #4
  %6 = tail call ptr @stat_tap_get_field_data(ptr noundef nonnull %0, i32 noundef %.063, i32 noundef 2) #4
  store i32 0, ptr %6, align 8
  %7 = getelementptr inbounds nuw i8, ptr %6, i64 8
  store double -1.000000e+00, ptr %7, align 8
  tail call void @stat_tap_set_field_data(ptr noundef nonnull %0, i32 noundef %.063, i32 noundef 2, ptr noundef nonnull %6) #4
  %8 = tail call ptr @stat_tap_get_field_data(ptr noundef nonnull %0, i32 noundef %.063, i32 noundef 3) #4
  %9 = getelementptr inbounds nuw i8, ptr %8, i64 8
  store i32 0, ptr %9, align 8
  tail call void @stat_tap_set_field_data(ptr noundef nonnull %0, i32 noundef %.063, i32 noundef 3, ptr noundef %8) #4
  %10 = tail call ptr @stat_tap_get_field_data(ptr noundef nonnull %0, i32 noundef %.063, i32 noundef 4) #4
  store i32 0, ptr %10, align 8
  %11 = getelementptr inbounds nuw i8, ptr %10, i64 8
  store double -1.000000e+00, ptr %11, align 8
  tail call void @stat_tap_set_field_data(ptr noundef nonnull %0, i32 noundef %.063, i32 noundef 4, ptr noundef nonnull %10) #4
  %12 = tail call ptr @stat_tap_get_field_data(ptr noundef nonnull %0, i32 noundef %.063, i32 noundef 5) #4
  store i32 0, ptr %12, align 8
  %13 = getelementptr inbounds nuw i8, ptr %12, i64 8
  store double 0x7FEFFFFFFFFFFFFF, ptr %13, align 8
  tail call void @stat_tap_set_field_data(ptr noundef nonnull %0, i32 noundef %.063, i32 noundef 5, ptr noundef nonnull %12) #4
  %14 = tail call ptr @stat_tap_get_field_data(ptr noundef nonnull %0, i32 noundef %.063, i32 noundef 6) #4
  store i32 0, ptr %14, align 8
  %15 = getelementptr inbounds nuw i8, ptr %14, i64 8
  store double 0x10000000000000, ptr %15, align 8
  tail call void @stat_tap_set_field_data(ptr noundef nonnull %0, i32 noundef %.063, i32 noundef 6, ptr noundef nonnull %14) #4
  %16 = tail call ptr @stat_tap_get_field_data(ptr noundef nonnull %0, i32 noundef %.063, i32 noundef 7) #4
  store i32 0, ptr %16, align 8
  %17 = getelementptr inbounds nuw i8, ptr %16, i64 8
  store double -1.000000e+00, ptr %17, align 8
  tail call void @stat_tap_set_field_data(ptr noundef nonnull %0, i32 noundef %.063, i32 noundef 7, ptr noundef nonnull %16) #4
  %18 = tail call ptr @stat_tap_get_field_data(ptr noundef nonnull %0, i32 noundef %.063, i32 noundef 8) #4
  store i32 0, ptr %18, align 8
  %19 = getelementptr inbounds nuw i8, ptr %18, i64 8
  store double -1.000000e+00, ptr %19, align 8
  tail call void @stat_tap_set_field_data(ptr noundef nonnull %0, i32 noundef %.063, i32 noundef 8, ptr noundef nonnull %18) #4
  %20 = tail call ptr @stat_tap_get_field_data(ptr noundef nonnull %0, i32 noundef %.063, i32 noundef 9) #4
  store i32 0, ptr %20, align 8
  %21 = getelementptr inbounds nuw i8, ptr %20, i64 8
  store double -1.000000e+00, ptr %21, align 8
  tail call void @stat_tap_set_field_data(ptr noundef nonnull %0, i32 noundef %.063, i32 noundef 9, ptr noundef nonnull %20) #4
  %22 = add nuw i32 %.063, 1
  %23 = load i32, ptr %2, align 4
  %24 = icmp ult i32 %22, %23
  br i1 %24, label %.lr.ph, label %._crit_edge, !llvm.loop !4

._crit_edge:                                      ; preds = %.lr.ph, %1
  store i64 0, ptr @componentstatusprotocol_total_msgs, align 8
  store i64 0, ptr @componentstatusprotocol_total_bytes, align 8
  ret void
}